target datalayout = "e-m:e-p270:32:32-p271:32:32-p272:64:64-i64:64-i128:128-f80:128-n8:16:32:64-S128"
target triple = "x86_64-pc-linux-gnu"

%"struct.rocksdb::UncompressionDict" = type { %"class.std::__cxx11::basic_string", %"class.std::unique_ptr.69", %"class.rocksdb::Slice" }
%"class.std::__cxx11::basic_string" = type { %"struct.std::__cxx11::basic_string<char>::_Alloc_hider", i64, %union.anon }
%"struct.std::__cxx11::basic_string<char>::_Alloc_hider" = type { ptr }
%union.anon = type { i64, [8 x i8] }
%"class.std::unique_ptr.69" = type { %"struct.std::__uniq_ptr_data.70" }
%"struct.std::__uniq_ptr_data.70" = type { %"class.std::__uniq_ptr_impl.71" }
%"class.std::__uniq_ptr_impl.71" = type { %"class.std::tuple.72" }
%"class.std::tuple.72" = type { %"struct.std::_Tuple_impl.73" }
%"struct.std::_Tuple_impl.73" = type { %"struct.std::_Tuple_impl.74", %"struct.std::_Head_base.76" }
%"struct.std::_Tuple_impl.74" = type { %"struct.std::_Head_base.75" }
%"struct.std::_Head_base.75" = type { %"struct.rocksdb::CustomDeleter" }
%"struct.rocksdb::CustomDeleter" = type { ptr }
%"struct.std::_Head_base.76" = type { ptr }
%"class.rocksdb::Slice" = type { ptr, i64 }
%"class.rocksdb::CachableEntry" = type <{ ptr, ptr, ptr, i8, [7 x i8] }>
%"class.rocksdb::UncompressionDictReader" = type { ptr, %"class.rocksdb::CachableEntry" }

; Function Attrs: mustprogress nounwind uwtable
define linkonce_odr noundef nonnull align 8 dereferenceable(8) ptr @_ZNSt10_Head_baseILm0EPcLb0EE7_M_headERKS1_(ptr noundef nonnull align 8 dereferenceable(8) %0) #3 comdat align 2 {
  %2 = alloca ptr, align 8
  store ptr %0, ptr %2, align 8, !tbaa !295
  %3 = load ptr, ptr %2, align 8, !tbaa !295
  %4 = getelementptr inbounds nuw %"struct.std::_Head_base.76", ptr %3, i32 0, i32 0
  ret ptr %4
}

; Function Attrs: mustprogress nounwind uwtable
define linkonce_odr noundef nonnull align 8 dereferenceable(8) ptr @_ZNSt10_Head_baseILm1EN7rocksdb13CustomDeleterELb0EE7_M_headERKS2_(ptr noundef nonnull align 8 dereferenceable(8) %0) #3 comdat align 2 {
  %2 = alloca ptr, align 8
  store ptr %0, ptr %2, align 8, !tbaa !299
  %3 = load ptr, ptr %2, align 8, !tbaa !299
  %4 = getelementptr inbounds nuw %"struct.std::_Head_base.75", ptr %3, i32 0, i32 0
  ret ptr %4
}

; Function Attrs: mustprogress nounwind uwtable
define linkonce_odr noundef nonnull align 8 dereferenceable(8) ptr @_ZNSt11_Tuple_implILm0EJPcN7rocksdb13CustomDeleterEEE7_M_headERKS3_(ptr noundef nonnull align 8 dereferenceable(16) %0) #3 comdat align 2 {
  %2 = alloca ptr, align 8
  store ptr %0, ptr %2, align 8, !tbaa !291
  %3 = load ptr, ptr %2, align 8, !tbaa !291
  %4 = getelementptr inbounds i8, ptr %3, i64 8
  %5 = call noundef nonnull align 8 dereferenceable(8) ptr @_ZNSt10_Head_baseILm0EPcLb0EE7_M_headERKS1_(ptr noundef nonnull align 8 dereferenceable(8) %4) #4
  ret ptr %5
}

; Function Attrs: mustprogress nounwind uwtable
define linkonce_odr noundef nonnull align 8 dereferenceable(8) ptr @_ZNSt11_Tuple_implILm1EJN7rocksdb13CustomDeleterEEE7_M_headERKS2_(ptr noundef nonnull align 8 dereferenceable(8) %0) #3 comdat align 2 {
  %2 = alloca ptr, align 8
  store ptr %0, ptr %2, align 8, !tbaa !293
  %3 = load ptr, ptr %2, align 8, !tbaa !293
  %4 = call noundef nonnull align 8 dereferenceable(8) ptr @_ZNSt10_Head_baseILm1EN7rocksdb13CustomDeleterELb0EE7_M_headERKS2_(ptr noundef nonnull align 8 dereferenceable(8) %3) #4
  ret ptr %4
}

; Function Attrs: mustprogress nounwind uwtable
define linkonce_odr noundef nonnull align 8 dereferenceable(8) ptr @_ZSt12__get_helperILm0EPcJN7rocksdb13CustomDeleterEEERKT0_RKSt11_Tuple_implIXT_EJS3_DpT1_EE(ptr noundef nonnull align 8 dereferenceable(16) %0) #3 comdat {
  %2 = alloca ptr, align 8
  store ptr %0, ptr %2, align 8, !tbaa !291
  %3 = load ptr, ptr %2, align 8, !tbaa !291
  %4 = call noundef nonnull align 8 dereferenceable(8) ptr @_ZNSt11_Tuple_implILm0EJPcN7rocksdb13CustomDeleterEEE7_M_headERKS3_(ptr noundef nonnull align 8 dereferenceable(16) %3) #4
  ret ptr %4
}

; Function Attrs: mustprogress nounwind uwtable
define linkonce_odr noundef nonnull align 8 dereferenceable(8) ptr @_ZSt12__get_helperILm1EN7rocksdb13CustomDeleterEJEERKT0_RKSt11_Tuple_implIXT_EJS2_DpT1_EE(ptr noundef nonnull align 8 dereferenceable(8) %0) #3 comdat {
  %2 = alloca ptr, align 8
  store ptr %0, ptr %2, align 8, !tbaa !293
  %3 = load ptr, ptr %2, align 8, !tbaa !293
  %4 = call noundef nonnull align 8 dereferenceable(8) ptr @_ZNSt11_Tuple_implILm1EJN7rocksdb13CustomDeleterEEE7_M_headERKS2_(ptr noundef nonnull align 8 dereferenceable(8) %3) #4
  ret ptr %4
}

; Function Attrs: mustprogress nounwind uwtable
define linkonce_odr noundef nonnull align 8 dereferenceable(8) ptr @_ZSt3getILm0EJPcN7rocksdb13CustomDeleterEEERKNSt13tuple_elementIXT_ESt5tupleIJDpT0_EEE4typeERKS7_(ptr noundef nonnull align 8 dereferenceable(16) %0) #3 comdat {
  %2 = alloca ptr, align 8
  store ptr %0, ptr %2, align 8, !tbaa !289
  %3 = load ptr, ptr %2, align 8, !tbaa !289
  %4 = call noundef nonnull align 8 dereferenceable(8) ptr @_ZSt12__get_helperILm0EPcJN7rocksdb13CustomDeleterEEERKT0_RKSt11_Tuple_implIXT_EJS3_DpT1_EE(ptr noundef nonnull align 8 dereferenceable(16) %3) #4
  ret ptr %4
}

; Function Attrs: mustprogress nounwind uwtable
define linkonce_odr noundef nonnull align 8 dereferenceable(8) ptr @_ZSt3getILm1EJPcN7rocksdb13CustomDeleterEEERKNSt13tuple_elementIXT_ESt5tupleIJDpT0_EEE4typeERKS7_(ptr noundef nonnull align 8 dereferenceable(16) %0) #3 comdat {
  %2 = alloca ptr, align 8
  store ptr %0, ptr %2, align 8, !tbaa !289
  %3 = load ptr, ptr %2, align 8, !tbaa !289
  %4 = call noundef nonnull align 8 dereferenceable(8) ptr @_ZSt12__get_helperILm1EN7rocksdb13CustomDeleterEJEERKT0_RKSt11_Tuple_implIXT_EJS2_DpT1_EE(ptr noundef nonnull align 8 dereferenceable(8) %3) #4
  ret ptr %4
}

; Function Attrs: mustprogress nounwind uwtable
define linkonce_odr noundef ptr @_ZNKSt15__uniq_ptr_implIcN7rocksdb13CustomDeleterEE6_M_ptrEv(ptr noundef nonnull align 8 dereferenceable(16) %0) #3 comdat align 2 {
  %2 = alloca ptr, align 8
  store ptr %0, ptr %2, align 8, !tbaa !287
  %3 = load ptr, ptr %2, align 8
  %4 = getelementptr inbounds nuw %"class.std::__uniq_ptr_impl.71", ptr %3, i32 0, i32 0
  %5 = call noundef nonnull align 8 dereferenceable(8) ptr @_ZSt3getILm0EJPcN7rocksdb13CustomDeleterEEERKNSt13tuple_elementIXT_ESt5tupleIJDpT0_EEE4typeERKS7_(ptr noundef nonnull align 8 dereferenceable(16) %4) #4
  %6 = load ptr, ptr %5, align 8, !tbaa !221
  ret ptr %6
}

; Function Attrs: mustprogress nounwind uwtable
define linkonce_odr noundef nonnull align 8 dereferenceable(8) ptr @_ZNKSt15__uniq_ptr_implIcN7rocksdb13CustomDeleterEE10_M_deleterEv(ptr noundef nonnull align 8 dereferenceable(16) %0) #3 comdat align 2 {
  %2 = alloca ptr, align 8
  store ptr %0, ptr %2, align 8, !tbaa !287
  %3 = load ptr, ptr %2, align 8
  %4 = getelementptr inbounds nuw %"class.std::__uniq_ptr_impl.71", ptr %3, i32 0, i32 0
  %5 = call noundef nonnull align 8 dereferenceable(8) ptr @_ZSt3getILm1EJPcN7rocksdb13CustomDeleterEEERKNSt13tuple_elementIXT_ESt5tupleIJDpT0_EEE4typeERKS7_(ptr noundef nonnull align 8 dereferenceable(16) %4) #4
  ret ptr %5
}

; Function Attrs: mustprogress nounwind uwtable
define linkonce_odr noundef i64 @_ZNK7rocksdb5Slice4sizeEv(ptr noundef nonnull align 8 dereferenceable(16) %0) #3 comdat align 2 {
  %2 = alloca ptr, align 8
  store ptr %0, ptr %2, align 8, !tbaa !10
  %3 = load ptr, ptr %2, align 8
  %4 = getelementptr inbounds nuw %"class.rocksdb::Slice", ptr %3, i32 0, i32 1
  %5 = load i64, ptr %4, align 8, !tbaa !13
  ret i64 %5
}

; Function Attrs: mustprogress nounwind uwtable
define linkonce_odr noundef ptr @_ZNKSt10unique_ptrIA_cN7rocksdb13CustomDeleterEE3getEv(ptr noundef nonnull align 8 dereferenceable(16) %0) #3 comdat align 2 {
  %2 = alloca ptr, align 8
  store ptr %0, ptr %2, align 8, !tbaa !272
  %3 = load ptr, ptr %2, align 8
  %4 = getelementptr inbounds nuw %"class.std::unique_ptr.69", ptr %3, i32 0, i32 0
  %5 = call noundef ptr @_ZNKSt15__uniq_ptr_implIcN7rocksdb13CustomDeleterEE6_M_ptrEv(ptr noundef nonnull align 8 dereferenceable(16) %4) #4
  ret ptr %5
}

; Function Attrs: mustprogress nounwind uwtable
define linkonce_odr noundef nonnull align 8 dereferenceable(8) ptr @_ZNKSt10unique_ptrIA_cN7rocksdb13CustomDeleterEE11get_deleterEv(ptr noundef nonnull align 8 dereferenceable(16) %0) #3 comdat align 2 {
  %2 = alloca ptr, align 8
  store ptr %0, ptr %2, align 8, !tbaa !272
  %3 = load ptr, ptr %2, align 8
  %4 = getelementptr inbounds nuw %"class.std::unique_ptr.69", ptr %3, i32 0, i32 0
  %5 = call noundef nonnull align 8 dereferenceable(8) ptr @_ZNKSt15__uniq_ptr_implIcN7rocksdb13CustomDeleterEE10_M_deleterEv(ptr noundef nonnull align 8 dereferenceable(16) %4) #4
  ret ptr %5
}

; Function Attrs: mustprogress nounwind uwtable
define linkonce_odr noundef zeroext i1 @_ZNKSt10unique_ptrIA_cN7rocksdb13CustomDeleterEEcvbEv(ptr noundef nonnull align 8 dereferenceable(16) %0) #3 comdat align 2 {
  %2 = alloca ptr, align 8
  store ptr %0, ptr %2, align 8, !tbaa !272
  %3 = load ptr, ptr %2, align 8
  %4 = call noundef ptr @_ZNKSt10unique_ptrIA_cN7rocksdb13CustomDeleterEE3getEv(ptr noundef nonnull align 8 dereferenceable(16) %3) #4
  %5 = icmp eq ptr %4, null
  %6 = select i1 %5, i1 false, i1 true
  ret i1 %6
}

; Function Attrs: mustprogress nounwind uwtable
define available_externally noundef i64 @_ZNKSt7__cxx1112basic_stringIcSt11char_traitsIcESaIcEE4sizeEv(ptr noundef nonnull align 8 dereferenceable(32) %0) #3 align 2 {
  %2 = alloca ptr, align 8
  store ptr %0, ptr %2, align 8, !tbaa !222
  %3 = load ptr, ptr %2, align 8
  %4 = getelementptr inbounds nuw %"class.std::__cxx11::basic_string", ptr %3, i32 0, i32 1
  %5 = load i64, ptr %4, align 8, !tbaa !283
  ret i64 %5
}

; Function Attrs: mustprogress uwtable
define linkonce_odr noundef i64 @_ZNK7rocksdb17UncompressionDict22ApproximateMemoryUsageEv(ptr noundef nonnull align 8 dereferenceable(64) %0) #5 comdat align 2 {
  %2 = alloca ptr, align 8
  %3 = alloca i64, align 8
  %4 = alloca ptr, align 8
  store ptr %0, ptr %2, align 8, !tbaa !224
  %5 = load ptr, ptr %2, align 8
  call void @llvm.lifetime.start.p0(i64 8, ptr %3) #4
  store i64 64, ptr %3, align 8, !tbaa !4
  %6 = getelementptr inbounds nuw %"struct.rocksdb::UncompressionDict", ptr %5, i32 0, i32 0
  %7 = call noundef i64 @_ZNKSt7__cxx1112basic_stringIcSt11char_traitsIcESaIcEE4sizeEv(ptr noundef nonnull align 8 dereferenceable(32) %6) #4
  %8 = load i64, ptr %3, align 8, !tbaa !4
  %9 = add i64 %8, %7
  store i64 %9, ptr %3, align 8, !tbaa !4
  %10 = getelementptr inbounds nuw %"struct.rocksdb::UncompressionDict", ptr %5, i32 0, i32 1
  %11 = call noundef zeroext i1 @_ZNKSt10unique_ptrIA_cN7rocksdb13CustomDeleterEEcvbEv(ptr noundef nonnull align 8 dereferenceable(16) %10) #4
  br i1 %11, label %12, label %37

12:                                               ; preds = %1
  call void @llvm.lifetime.start.p0(i64 8, ptr %4) #4
  %13 = getelementptr inbounds nuw %"struct.rocksdb::UncompressionDict", ptr %5, i32 0, i32 1
  %14 = call noundef nonnull align 8 dereferenceable(8) ptr @_ZNKSt10unique_ptrIA_cN7rocksdb13CustomDeleterEE11get_deleterEv(ptr noundef nonnull align 8 dereferenceable(16) %13) #4
  %15 = getelementptr inbounds nuw %"struct.rocksdb::CustomDeleter", ptr %14, i32 0, i32 0
  %16 = load ptr, ptr %15, align 8, !tbaa !226
  store ptr %16, ptr %4, align 8, !tbaa !229
  %17 = load ptr, ptr %4, align 8, !tbaa !229
  %18 = icmp ne ptr %17, null
  br i1 %18, label %19, label %31

19:                                               ; preds = %12
  %20 = load ptr, ptr %4, align 8, !tbaa !229
  %21 = getelementptr inbounds nuw %"struct.rocksdb::UncompressionDict", ptr %5, i32 0, i32 1
  %22 = call noundef ptr @_ZNKSt10unique_ptrIA_cN7rocksdb13CustomDeleterEE3getEv(ptr noundef nonnull align 8 dereferenceable(16) %21) #4
  %23 = getelementptr inbounds nuw %"struct.rocksdb::UncompressionDict", ptr %5, i32 0, i32 2
  %24 = call noundef i64 @_ZNK7rocksdb5Slice4sizeEv(ptr noundef nonnull align 8 dereferenceable(16) %23)
  %25 = load ptr, ptr %20, align 8, !tbaa !230
  %26 = getelementptr inbounds ptr, ptr %25, i64 21
  %27 = load ptr, ptr %26, align 8
  %28 = call noundef i64 %27(ptr noundef nonnull align 8 dereferenceable(32) %20, ptr noundef %22, i64 noundef %24)
  %29 = load i64, ptr %3, align 8, !tbaa !4
  %30 = add i64 %29, %28
  store i64 %30, ptr %3, align 8, !tbaa !4
  br label %36

31:                                               ; preds = %12
  %32 = getelementptr inbounds nuw %"struct.rocksdb::UncompressionDict", ptr %5, i32 0, i32 2
  %33 = call noundef i64 @_ZNK7rocksdb5Slice4sizeEv(ptr noundef nonnull align 8 dereferenceable(16) %32)
  %34 = load i64, ptr %3, align 8, !tbaa !4
  %35 = add i64 %34, %33
  store i64 %35, ptr %3, align 8, !tbaa !4
  br label %36

36:                                               ; preds = %31, %19
  call void @llvm.lifetime.end.p0(i64 8, ptr %4) #4
  br label %37

37:                                               ; preds = %36, %1
  %38 = load i64, ptr %3, align 8, !tbaa !4
  call void @llvm.lifetime.end.p0(i64 8, ptr %3) #4
  ret i64 %38
}

; Function Attrs: mustprogress nounwind uwtable
define linkonce_odr noundef ptr @_ZNK7rocksdb13CachableEntryINS_17UncompressionDictEE8GetValueEv(ptr noundef nonnull align 8 dereferenceable(25) %0) #3 comdat align 2 {
  %2 = alloca ptr, align 8
  store ptr %0, ptr %2, align 8, !tbaa !35
  %3 = load ptr, ptr %2, align 8
  %4 = getelementptr inbounds nuw %"class.rocksdb::CachableEntry", ptr %3, i32 0, i32 0
  %5 = load ptr, ptr %4, align 8, !tbaa !37
  ret ptr %5
}

; Function Attrs: mustprogress nounwind uwtable
define linkonce_odr noundef zeroext i1 @_ZNK7rocksdb13CachableEntryINS_17UncompressionDictEE11GetOwnValueEv(ptr noundef nonnull align 8 dereferenceable(25) %0) #3 comdat align 2 {
  %2 = alloca ptr, align 8
  store ptr %0, ptr %2, align 8, !tbaa !35
  %3 = load ptr, ptr %2, align 8
  %4 = getelementptr inbounds nuw %"class.rocksdb::CachableEntry", ptr %3, i32 0, i32 3
  %5 = load i8, ptr %4, align 8, !tbaa !44, !range !33, !noundef !34
  %6 = trunc i8 %5 to i1
  ret i1 %6
}

; Function Attrs: mustprogress uwtable
define noundef i64 @_ZNK7rocksdb23UncompressionDictReader22ApproximateMemoryUsageEv(ptr noundef nonnull align 8 dereferenceable(40) %0) #5 align 2 {
  %2 = alloca ptr, align 8
  %3 = alloca i64, align 8
  store ptr %0, ptr %2, align 8, !tbaa !213
  %4 = load ptr, ptr %2, align 8
  call void @llvm.lifetime.start.p0(i64 8, ptr %3) #4
  %5 = getelementptr inbounds nuw %"class.rocksdb::UncompressionDictReader", ptr %4, i32 0, i32 1
  %6 = call noundef zeroext i1 @_ZNK7rocksdb13CachableEntryINS_17UncompressionDictEE11GetOwnValueEv(ptr noundef nonnull align 8 dereferenceable(25) %5)
  br i1 %6, label %7, label %11

7:                                                ; preds = %1
  %8 = getelementptr inbounds nuw %"class.rocksdb::UncompressionDictReader", ptr %4, i32 0, i32 1
  %9 = call noundef ptr @_ZNK7rocksdb13CachableEntryINS_17UncompressionDictEE8GetValueEv(ptr noundef nonnull align 8 dereferenceable(25) %8)
  %10 = call noundef i64 @_ZNK7rocksdb17UncompressionDict22ApproximateMemoryUsageEv(ptr noundef nonnull align 8 dereferenceable(64) %9)
  br label %12

11:                                               ; preds = %1
  br label %12

12:                                               ; preds = %11, %7
  %13 = phi i64 [ %10, %7 ], [ 0, %11 ]
  store i64 %13, ptr %3, align 8, !tbaa !4
  %14 = call i64 @malloc_usable_size(ptr noundef %4) #4
  %15 = load i64, ptr %3, align 8, !tbaa !4
  %16 = add i64 %15, %14
  store i64 %16, ptr %3, align 8, !tbaa !4
  %17 = load i64, ptr %3, align 8, !tbaa !4
  call void @llvm.lifetime.end.p0(i64 8, ptr %3) #4
  ret i64 %17
}