; Function Attrs: mustprogress uwtable
define noundef i64 @_ZNK7rocksdb23UncompressionDictReader22ApproximateMemoryUsageEv(ptr noundef nonnull align 8 dereferenceable(40) %0) local_unnamed_addr #3 align 2 {
  %2 = getelementptr inbounds nuw i8, ptr %0, i64 32
  %3 = load i8, ptr %2, align 8, !tbaa !33, !range !34, !noundef !35
  %4 = trunc nuw i8 %3 to i1
  br i1 %4, label %5, label %_ZNK7rocksdb17UncompressionDict22ApproximateMemoryUsageEv.exit

5:                                                ; preds = %1
  %6 = getelementptr inbounds nuw i8, ptr %0, i64 8
  %7 = load ptr, ptr %6, align 8, !tbaa !36
  %8 = getelementptr inbounds nuw i8, ptr %7, i64 8
  %9 = load i64, ptr %8, align 8, !tbaa !55
  %10 = add i64 %9, 64
  %11 = getelementptr inbounds nuw i8, ptr %7, i64 40
  %12 = load ptr, ptr %11, align 8, !tbaa !37
  %.not7.i = icmp eq ptr %12, null
  br i1 %.not7.i, label %_ZNK7rocksdb17UncompressionDict22ApproximateMemoryUsageEv.exit, label %13

13:                                               ; preds = %5
  %14 = getelementptr inbounds nuw i8, ptr %7, i64 32
  %15 = load ptr, ptr %14, align 8, !tbaa !217
  %.not.i = icmp eq ptr %15, null
  %16 = getelementptr inbounds nuw i8, ptr %7, i64 56
  %17 = load i64, ptr %16, align 8, !tbaa !60
  br i1 %.not.i, label %23, label %18

18:                                               ; preds = %13
  %19 = load ptr, ptr %15, align 8, !tbaa !31
  %20 = getelementptr inbounds nuw i8, ptr %19, i64 168
  %21 = load ptr, ptr %20, align 8
  %22 = tail call noundef i64 %21(ptr noundef nonnull align 8 dereferenceable(32) %15, ptr noundef nonnull %12, i64 noundef %17)
  br label %23

23:                                               ; preds = %18, %13
  %.pn.i = phi i64 [ %22, %18 ], [ %17, %13 ]
  %.1.i = add i64 %.pn.i, %10
  br label %_ZNK7rocksdb17UncompressionDict22ApproximateMemoryUsageEv.exit

_ZNK7rocksdb17UncompressionDict22ApproximateMemoryUsageEv.exit: ; preds = %23, %5, %1
  %24 = phi i64 [ 0, %1 ], [ %.1.i, %23 ], [ %10, %5 ]
  %25 = tail call i64 @malloc_usable_size(ptr noundef nonnull %0) #15
  %26 = add i64 %25, %24
  ret i64 %26
}